target datalayout = "e-m:e-p270:32:32-p271:32:32-p272:64:64-i64:64-i128:128-f80:128-n8:16:32:64-S128"
target triple = "x86_64-unknown-linux-gnu"

%"class.QuantLib::Date" = type { i64 }
%"class.QuantLib::Null" = type { i8 }

; Function Attrs: mustprogress uwtable
define linkonce_odr i64 @_ZNK8QuantLib4NullINS_4DateEEcvS1_Ev(ptr noundef nonnull align 1 dereferenceable(1) %this) #2 comdat align 2 {
entry:
  %retval = alloca %"class.QuantLib::Date", align 8
  %this.addr = alloca ptr, align 8
  store ptr %this, ptr %this.addr, align 8, !tbaa !3
  call void @_ZN8QuantLib4DateC1Ev(ptr noundef nonnull align 8 dereferenceable(8) %retval)
  %coerce.dive = getelementptr inbounds nuw %"class.QuantLib::Date", ptr %retval, i32 0, i32 0
  %0 = load i64, ptr %coerce.dive, align 8
  ret i64 %0
}

; Function Attrs: mustprogress uwtable
define void @_ZN8QuantLib9CPICouponC1EdRKNS_4DateEdS3_S3_RKN5boost10shared_ptrINS_18ZeroInflationIndexEEERKNS_6PeriodENS_3CPI17InterpolationTypeERKNS_10DayCounterEdS3_S3_S3_(ptr noundef nonnull align 8 dereferenceable(192) %this, double noundef %baseCPI, ptr noundef nonnull align 8 dereferenceable(8) %paymentDate, double noundef %nominal, ptr noundef nonnull align 8 dereferenceable(8) %startDate, ptr noundef nonnull align 8 dereferenceable(8) %endDate, ptr noundef nonnull align 8 dereferenceable(16) %index, ptr noundef nonnull align 4 dereferenceable(8) %observationLag, i32 noundef %observationInterpolation, ptr noundef nonnull align 8 dereferenceable(16) %dayCounter, double noundef %fixedRate, ptr noundef nonnull align 8 dereferenceable(8) %refPeriodStart, ptr noundef nonnull align 8 dereferenceable(8) %refPeriodEnd, ptr noundef nonnull align 8 dereferenceable(8) %exCouponDate) unnamed_addr #2 align 2 {
entry:
  %this.addr = alloca ptr, align 8
  %baseCPI.addr = alloca double, align 8
  %paymentDate.addr = alloca ptr, align 8
  %nominal.addr = alloca double, align 8
  %startDate.addr = alloca ptr, align 8
  %endDate.addr = alloca ptr, align 8
  %index.addr = alloca ptr, align 8
  %observationLag.addr = alloca ptr, align 8
  %observationInterpolation.addr = alloca i32, align 4
  %dayCounter.addr = alloca ptr, align 8
  %fixedRate.addr = alloca double, align 8
  %refPeriodStart.addr = alloca ptr, align 8
  %refPeriodEnd.addr = alloca ptr, align 8
  %exCouponDate.addr = alloca ptr, align 8
  %ref.tmp = alloca %"class.QuantLib::Date", align 8
  %ref.tmp2 = alloca %"class.QuantLib::Null", align 1
  store ptr %this, ptr %this.addr, align 8, !tbaa !3
  store double %baseCPI, ptr %baseCPI.addr, align 8, !tbaa !31
  store ptr %paymentDate, ptr %paymentDate.addr, align 8, !tbaa !3
  store double %nominal, ptr %nominal.addr, align 8, !tbaa !31
  store ptr %startDate, ptr %startDate.addr, align 8, !tbaa !3
  store ptr %endDate, ptr %endDate.addr, align 8, !tbaa !3
  store ptr %index, ptr %index.addr, align 8, !tbaa !3
  store ptr %observationLag, ptr %observationLag.addr, align 8, !tbaa !3
  store i32 %observationInterpolation, ptr %observationInterpolation.addr, align 4, !tbaa !32
  store ptr %dayCounter, ptr %dayCounter.addr, align 8, !tbaa !3
  store double %fixedRate, ptr %fixedRate.addr, align 8, !tbaa !31
  store ptr %refPeriodStart, ptr %refPeriodStart.addr, align 8, !tbaa !3
  store ptr %refPeriodEnd, ptr %refPeriodEnd.addr, align 8, !tbaa !3
  store ptr %exCouponDate, ptr %exCouponDate.addr, align 8, !tbaa !3
  %this1 = load ptr, ptr %this.addr, align 8
  %0 = load double, ptr %baseCPI.addr, align 8, !tbaa !31
  call void @llvm.lifetime.start.p0(i64 8, ptr %ref.tmp) #16
  call void @llvm.lifetime.start.p0(i64 1, ptr %ref.tmp2) #16
  %call = call i64 @_ZNK8QuantLib4NullINS_4DateEEcvS1_Ev(ptr noundef nonnull align 1 dereferenceable(1) %ref.tmp2)
  %coerce.dive = getelementptr inbounds nuw %"class.QuantLib::Date", ptr %ref.tmp, i32 0, i32 0
  store i64 %call, ptr %coerce.dive, align 8
  %1 = load ptr, ptr %paymentDate.addr, align 8, !tbaa !3
  %2 = load double, ptr %nominal.addr, align 8, !tbaa !31
  %3 = load ptr, ptr %startDate.addr, align 8, !tbaa !3
  %4 = load ptr, ptr %endDate.addr, align 8, !tbaa !3
  %5 = load ptr, ptr %index.addr, align 8, !tbaa !3
  %6 = load ptr, ptr %observationLag.addr, align 8, !tbaa !3
  %7 = load i32, ptr %observationInterpolation.addr, align 4, !tbaa !32
  %8 = load ptr, ptr %dayCounter.addr, align 8, !tbaa !3
  %9 = load double, ptr %fixedRate.addr, align 8, !tbaa !31
  %10 = load ptr, ptr %refPeriodStart.addr, align 8, !tbaa !3
  %11 = load ptr, ptr %refPeriodEnd.addr, align 8, !tbaa !3
  %12 = load ptr, ptr %exCouponDate.addr, align 8, !tbaa !3
  call void @_ZN8QuantLib9CPICouponC1EdRKNS_4DateES3_dS3_S3_RKN5boost10shared_ptrINS_18ZeroInflationIndexEEERKNS_6PeriodENS_3CPI17InterpolationTypeERKNS_10DayCounterEdS3_S3_S3_(ptr noundef nonnull align 8 dereferenceable(192) %this1, double noundef %0, ptr noundef nonnull align 8 dereferenceable(8) %ref.tmp, ptr noundef nonnull align 8 dereferenceable(8) %1, double noundef %2, ptr noundef nonnull align 8 dereferenceable(8) %3, ptr noundef nonnull align 8 dereferenceable(8) %4, ptr noundef nonnull align 8 dereferenceable(16) %5, ptr noundef nonnull align 4 dereferenceable(8) %6, i32 noundef %7, ptr noundef nonnull align 8 dereferenceable(16) %8, double noundef %9, ptr noundef nonnull align 8 dereferenceable(8) %10, ptr noundef nonnull align 8 dereferenceable(8) %11, ptr noundef nonnull align 8 dereferenceable(8) %12)
  call void @llvm.lifetime.end.p0(i64 1, ptr %ref.tmp2) #16
  call void @llvm.lifetime.end.p0(i64 8, ptr %ref.tmp) #16
  ret void
}